; Function Attrs: mustprogress uwtable
define hidden noundef i32 @_ZN16bv2real_rewriter6mk_addEjPKP4exprR7obj_refIS0_11ast_managerE(ptr nocapture noundef nonnull readonly align 8 dereferenceable(56) %this, i32 noundef %num_args, ptr nocapture noundef readonly %args, ptr nocapture noundef nonnull align 8 dereferenceable(16) %result) local_unnamed_addr #3 align 2 {
entry:
  %0 = load ptr, ptr %args, align 8
  %tobool.not.i = icmp eq ptr %0, null
  br i1 %tobool.not.i, label %if.end.i, label %_ZN11ast_manager7inc_refEP3ast.exit.i

_ZN11ast_manager7inc_refEP3ast.exit.i:            ; preds = %entry
  %m_ref_count.i.i.i = getelementptr inbounds i8, ptr %0, i64 8
  %1 = load i32, ptr %m_ref_count.i.i.i, align 4
  %inc.i.i.i = add i32 %1, 1
  store i32 %inc.i.i.i, ptr %m_ref_count.i.i.i, align 4
  br label %if.end.i

if.end.i:                                         ; preds = %_ZN11ast_manager7inc_refEP3ast.exit.i, %entry
  %2 = load ptr, ptr %result, align 8
  %tobool.not.i3.i = icmp eq ptr %2, null
  br i1 %tobool.not.i3.i, label %_ZN7obj_refI4expr11ast_managerEaSEPS0_.exit, label %if.then.i.i.i

if.then.i.i.i:                                    ; preds = %if.end.i
  %m_manager.i.i = getelementptr inbounds i8, ptr %result, i64 8
  %3 = load ptr, ptr %m_manager.i.i, align 8
  %m_ref_count.i.i.i.i = getelementptr inbounds i8, ptr %2, i64 8
  %4 = load i32, ptr %m_ref_count.i.i.i.i, align 4
  %dec.i.i.i.i = add i32 %4, -1
  store i32 %dec.i.i.i.i, ptr %m_ref_count.i.i.i.i, align 4
  %cmp.i.i.i = icmp eq i32 %dec.i.i.i.i, 0
  br i1 %cmp.i.i.i, label %if.then2.i.i.i, label %_ZN7obj_refI4expr11ast_managerEaSEPS0_.exit

if.then2.i.i.i:                                   ; preds = %if.then.i.i.i
  tail call void @_ZN11ast_manager11delete_nodeEP3ast(ptr noundef nonnull align 8 dereferenceable(976) %3, ptr noundef nonnull %2)
  br label %_ZN7obj_refI4expr11ast_managerEaSEPS0_.exit

_ZN7obj_refI4expr11ast_managerEaSEPS0_.exit:      ; preds = %if.end.i, %if.then.i.i.i, %if.then2.i.i.i
  store ptr %0, ptr %result, align 8
  %cmp27 = icmp ugt i32 %num_args, 1
  br i1 %cmp27, label %for.body.preheader, label %for.end

for.body.preheader:                               ; preds = %_ZN7obj_refI4expr11ast_managerEaSEPS0_.exit
  %5 = zext i32 %num_args to i64
  br label %for.body

for.body:                                         ; preds = %for.body.preheader, %for.body
  %indvars.iv = phi i64 [ 1, %for.body.preheader ], [ %indvars.iv.next, %for.body ]
  %6 = load ptr, ptr %result, align 8
  %arrayidx4 = getelementptr inbounds ptr, ptr %args, i64 %indvars.iv
  %7 = load ptr, ptr %arrayidx4, align 8
  %call5 = tail call noundef i32 @_ZN16bv2real_rewriter6mk_addEP4exprS1_R7obj_refIS0_11ast_managerE(ptr noundef nonnull align 8 dereferenceable(56) %this, ptr noundef %6, ptr noundef %7, ptr noundef nonnull align 8 dereferenceable(16) %result), !range !42
  %indvars.iv.next = add nuw nsw i64 %indvars.iv, 1
  %cmp = icmp eq i32 %call5, 4
  %cmp2 = icmp ult i64 %indvars.iv.next, %5
  %8 = select i1 %cmp, i1 %cmp2, i1 false
  br i1 %8, label %for.body, label %for.end, !llvm.loop !43

for.end:                                          ; preds = %for.body, %_ZN7obj_refI4expr11ast_managerEaSEPS0_.exit
  %r.0.lcssa = phi i32 [ 4, %_ZN7obj_refI4expr11ast_managerEaSEPS0_.exit ], [ %call5, %for.body ]
  ret i32 %r.0.lcssa
}